(dp1
S'OriginalConfig'
p2
ccopy_reg
_reconstructor
p3
(cWMCore.Configuration
Configuration
p4
c__builtin__
object
p5
NtRp6
(dp7
S'Site'
p8
g3
(cWMCore.Configuration
ConfigSection
p9
g5
NtRp10
(dp11
S'_internal_skipChecks'
p12
I00
sS'_internal_documentation'
p13
S''
sS'_internal_settings'
p14
c__builtin__
set
p15
((lp16
S'storageSite'
p17
atRp18
sS'_internal_name'
p19
g8
sS'_internal_docstrings'
p20
(dp21
sS'_internal_children'
p22
g15
((ltRp23
sg17
S'T2_IT_Rome'
p24
sS'_internal_parent_ref'
p25
NsbsS'_internal_sections'
p26
(lp27
S'General'
p28
aS'JobType'
p29
aS'Data'
p30
ag8
aS'User'
p31
aS'Debug'
p32
asg28
g3
(g9
g5
NtRp33
(dp34
S'workArea'
p35
S'BParkingNANO_2021Feb01'
p36
sg12
I00
sg13
S''
sg14
g15
((lp37
g35
aS'transferOutputs'
p38
aS'transferLogs'
p39
aS'requestName'
p40
atRp41
sg19
g28
sg20
(dp42
sg38
I01
sg22
g15
((ltRp43
sg40
S'data_Run2018D_part1'
p44
sg25
Nsg39
I01
sbsS'_internal_webapps'
p45
(lp46
sg31
g3
(g9
g5
NtRp47
(dp48
g12
I00
sg13
S''
sg14
g15
((ltRp49
sg19
g31
sg20
(dp50
sg22
g15
((ltRp51
sg25
NsbsS'_internal_components'
p52
(lp53
sg32
g3
(g9
g5
NtRp54
(dp55
g12
I00
sg13
S''
sg14
g15
((ltRp56
sg19
g32
sg20
(dp57
sg22
g15
((ltRp58
sg25
Nsbsg30
g3
(g9
g5
NtRp59
(dp60
S'inputDataset'
p61
S'/ParkingBPH1/Run2018D-05May2019promptD-v1/MINIAOD'
p62
sg12
I00
sS'splitting'
p63
S'LumiBased'
p64
sS'unitsPerJob'
p65
I20
sg13
S''
sg14
g15
((lp66
g61
aS'publication'
p67
ag65
ag63
aS'inputDBS'
p68
aS'lumiMask'
p69
aS'outLFNDirBase'
p70
atRp71
sg19
g30
sg68
S'global'
p72
sg20
(dp73
sg22
g15
((ltRp74
sg70
S'/store/user/ratramon/HNLGen_ntuples/'
p75
sg25
Nsg69
S'https://cms-service-dqm.web.cern.ch/cms-service-dqm/CAF/certification/Collisions18/13TeV/ReReco/Cert_314472-325175_13TeV_17SeptEarlyReReco2018ABC_PromptEraD_Collisions18_JSON.txt'
p76
sg67
I00
sbsg29
g3
(g9
g5
NtRp77
(dp78
S'inputFiles'
p79
(lp80
S'../test/lowPtEleReg_2018_02062020_nv.db'
p81
asg12
I00
sS'pyCfgParams'
p82
(lp83
S'isMC=False'
p84
aS'reportEvery=1000'
p85
aS'tag=2021Feb01'
p86
aS'globalTag=102X_dataRun2_Prompt_v14'
p87
asg13
S''
sg14
g15
((lp88
g79
ag82
aS'pluginName'
p89
aS'outputFiles'
p90
aS'allowUndistributedCMSSW'
p91
aS'psetName'
p92
aS'maxJobRuntimeMin'
p93
atRp94
sg19
g29
sg20
(dp95
sg89
S'Analysis'
p96
sg90
(lp97
S'BParkNANO_data_2021Feb01.root'
p98
asg22
g15
((ltRp99
sg91
I01
sg92
S'../test/run_HNLnano_cfg.py'
p100
sg25
Nsg93
I3000
sbsbsS'voGroup'
p101
S''
sS'Server'
p102
S'cmsweb-k8s-prod.cern.ch'
p103
sS'instance'
p104
S'prod'
p105
sS'RequestName'
p106
V210201_204245:ratramon_crab_data_Run2018D_part1
p107
sS'voRole'
p108
S'NULL'
p109
sS'Port'
p110
S''
s.